; Function Attrs: nounwind uwtable
define ptr @l_Array_foldlMUnsafe_fold___at_Lean_Elab_Tactic_BVDecide_Frontend_Normalize_typeAnalysisPass_analyzeStructure___spec__5___boxed(ptr noundef %0, ptr noundef %1, ptr noundef %2, ptr noundef %3, ptr noundef %4, ptr noundef %5, ptr noundef %6, ptr noundef %7, ptr noundef %8, ptr noundef %9, ptr noundef %10) local_unnamed_addr #1 {
  %12 = getelementptr i8, ptr %1, i64 8
  %.val27 = load i64, ptr %12, align 8, !tbaa !12
  %13 = ptrtoint ptr %1 to i64
  %14 = and i64 %13, 1
  %.not = icmp eq i64 %14, 0
  br i1 %.not, label %15, label %lean_dec.exit20

15:                                               ; preds = %11
  %16 = load i32, ptr %1, align 4, !tbaa !8
  %17 = icmp sgt i32 %16, 1
  br i1 %17, label %18, label %20, !prof !11

18:                                               ; preds = %15
  %19 = add nsw i32 %16, -1
  store i32 %19, ptr %1, align 4, !tbaa !8
  br label %lean_dec.exit20

20:                                               ; preds = %15
  %.not.i = icmp eq i32 %16, 0
  br i1 %.not.i, label %lean_dec.exit20, label %21

21:                                               ; preds = %20
  tail call void @lean_dec_ref_cold(ptr noundef nonnull %1) #4
  br label %lean_dec.exit20

lean_dec.exit20:                                  ; preds = %21, %20, %18, %11
  %22 = getelementptr i8, ptr %2, i64 8
  %.val = load i64, ptr %22, align 8, !tbaa !12
  %23 = ptrtoint ptr %2 to i64
  %24 = and i64 %23, 1
  %.not28 = icmp eq i64 %24, 0
  br i1 %.not28, label %25, label %lean_dec.exit19

25:                                               ; preds = %lean_dec.exit20
  %26 = load i32, ptr %2, align 4, !tbaa !8
  %27 = icmp sgt i32 %26, 1
  br i1 %27, label %28, label %30, !prof !11

28:                                               ; preds = %25
  %29 = add nsw i32 %26, -1
  store i32 %29, ptr %2, align 4, !tbaa !8
  br label %lean_dec.exit19

30:                                               ; preds = %25
  %.not.i21 = icmp eq i32 %26, 0
  br i1 %.not.i21, label %lean_dec.exit19, label %31

31:                                               ; preds = %30
  tail call void @lean_dec_ref_cold(ptr noundef nonnull %2) #4
  br label %lean_dec.exit19

lean_dec.exit19:                                  ; preds = %31, %30, %28, %lean_dec.exit20
  %32 = ptrtoint ptr %3 to i64
  %33 = lshr i64 %32, 1
  %34 = trunc i64 %33 to i8
  %35 = and i64 %32, 1
  %.not29 = icmp eq i64 %35, 0
  br i1 %.not29, label %36, label %lean_dec.exit18

36:                                               ; preds = %lean_dec.exit19
  %37 = load i32, ptr %3, align 4, !tbaa !8
  %38 = icmp sgt i32 %37, 1
  br i1 %38, label %39, label %41, !prof !11

39:                                               ; preds = %36
  %40 = add nsw i32 %37, -1
  store i32 %40, ptr %3, align 4, !tbaa !8
  br label %lean_dec.exit18

41:                                               ; preds = %36
  %.not.i23 = icmp eq i32 %37, 0
  br i1 %.not.i23, label %lean_dec.exit18, label %42

42:                                               ; preds = %41
  tail call void @lean_dec_ref_cold(ptr noundef nonnull %3) #4
  br label %lean_dec.exit18

lean_dec.exit18:                                  ; preds = %42, %41, %39, %lean_dec.exit19
  %43 = tail call ptr @l_Array_foldlMUnsafe_fold___at_Lean_Elab_Tactic_BVDecide_Frontend_Normalize_typeAnalysisPass_analyzeStructure___spec__5(ptr noundef %0, i64 noundef %.val27, i64 noundef %.val, i8 noundef zeroext %34, ptr noundef %4, ptr noundef %5, ptr noundef %6, ptr noundef %7, ptr noundef %8, ptr noundef %9, ptr noundef %10)
  %44 = ptrtoint ptr %0 to i64
  %45 = and i64 %44, 1
  %.not30 = icmp eq i64 %45, 0
  br i1 %.not30, label %46, label %lean_dec.exit

46:                                               ; preds = %lean_dec.exit18
  %47 = load i32, ptr %0, align 4, !tbaa !8
  %48 = icmp sgt i32 %47, 1
  br i1 %48, label %49, label %51, !prof !11

49:                                               ; preds = %46
  %50 = add nsw i32 %47, -1
  store i32 %50, ptr %0, align 4, !tbaa !8
  br label %lean_dec.exit

51:                                               ; preds = %46
  %.not.i25 = icmp eq i32 %47, 0
  br i1 %.not.i25, label %lean_dec.exit, label %52

52:                                               ; preds = %51
  tail call void @lean_dec_ref_cold(ptr noundef nonnull %0) #4
  br label %lean_dec.exit

lean_dec.exit:                                    ; preds = %52, %51, %49, %lean_dec.exit18
  ret ptr %43
}